
fork_cross_satp.elf:     file format elf32-littleriscv


Disassembly of section .text:

80000000 <_start>:
80000000:	900002b7          	lui	t0,0x90000
80000004:	04d00313          	li	t1,77
80000008:	0062a023          	sw	t1,0(t0) # 90000000 <MAGIC_PRINT+0x0>
8000000c:	00000f97          	auipc	t6,0x0
80000010:	1fcf8f93          	addi	t6,t6,508 # 80000208 <s_trap_handler>
80000014:	105f9073          	csrw	stvec,t6
80000018:	801003b7          	lui	t2,0x80100
8000001c:	20000e37          	lui	t3,0x20000
80000020:	0cfe6e13          	ori	t3,t3,207
80000024:	00001eb7          	lui	t4,0x1
80000028:	800e8e93          	addi	t4,t4,-2048 # 800 <PTE_USER+0x721>
8000002c:	01d38f33          	add	t5,t2,t4
80000030:	01cf2023          	sw	t3,0(t5)
80000034:	20100e37          	lui	t3,0x20100
80000038:	0cfe6e13          	ori	t3,t3,207
8000003c:	01cf2223          	sw	t3,4(t5)
80000040:	24000e37          	lui	t3,0x24000
80000044:	0cfe6e13          	ori	t3,t3,207
80000048:	00001eb7          	lui	t4,0x1
8000004c:	900e8e93          	addi	t4,t4,-1792 # 900 <PTE_USER+0x821>
80000050:	01d38f33          	add	t5,t2,t4
80000054:	01cf2023          	sw	t3,0(t5)
80000058:	801013b7          	lui	t2,0x80101
8000005c:	20041e37          	lui	t3,0x20041
80000060:	801e0e13          	addi	t3,t3,-2047 # 20040801 <PTE_USER+0x20040722>
80000064:	01c3a423          	sw	t3,8(t2) # 80101008 <MAGIC_PRINT+0xf0101008>
80000068:	20000e37          	lui	t3,0x20000
8000006c:	0cfe6e13          	ori	t3,t3,207
80000070:	00001eb7          	lui	t4,0x1
80000074:	800e8e93          	addi	t4,t4,-2048 # 800 <PTE_USER+0x721>
80000078:	01d38f33          	add	t5,t2,t4
8000007c:	01cf2023          	sw	t3,0(t5)
80000080:	20100e37          	lui	t3,0x20100
80000084:	0cfe6e13          	ori	t3,t3,207
80000088:	01cf2223          	sw	t3,4(t5)
8000008c:	24000e37          	lui	t3,0x24000
80000090:	0dfe6e13          	ori	t3,t3,223
80000094:	00001eb7          	lui	t4,0x1
80000098:	900e8e93          	addi	t4,t4,-1792 # 900 <PTE_USER+0x821>
8000009c:	01d38f33          	add	t5,t2,t4
800000a0:	01cf2023          	sw	t3,0(t5)
800000a4:	801023b7          	lui	t2,0x80102
800000a8:	200c0e37          	lui	t3,0x200c0
800000ac:	0dfe6e13          	ori	t3,t3,223
800000b0:	01c3a023          	sw	t3,0(t2) # 80102000 <MAGIC_PRINT+0xf0102000>
800000b4:	0000be37          	lui	t3,0xb
800000b8:	302e1073          	csrw	medeleg,t3
800000bc:	30002ff3          	csrr	t6,mstatus
800000c0:	ffffef37          	lui	t5,0xffffe
800000c4:	7fff0f13          	addi	t5,t5,2047 # ffffe7ff <MAGIC_PRINT+0x6fffe7ff>
800000c8:	01efffb3          	and	t6,t6,t5
800000cc:	00001f37          	lui	t5,0x1
800000d0:	800f0f13          	addi	t5,t5,-2048 # 800 <PTE_USER+0x721>
800000d4:	01efefb3          	or	t6,t6,t5
800000d8:	300f9073          	csrw	mstatus,t6
800000dc:	00000f97          	auipc	t6,0x0
800000e0:	010f8f93          	addi	t6,t6,16 # 800000ec <s_mode_entry>
800000e4:	341f9073          	csrw	mepc,t6
800000e8:	30200073          	mret

800000ec <s_mode_entry>:
800000ec:	900002b7          	lui	t0,0x90000
800000f0:	05300313          	li	t1,83
800000f4:	0062a023          	sw	t1,0(t0) # 90000000 <MAGIC_PRINT+0x0>
800000f8:	12000073          	sfence.vma
800000fc:	80080e37          	lui	t3,0x80080
80000100:	100e6e13          	ori	t3,t3,256
80000104:	180e1073          	csrw	satp,t3
80000108:	0000100f          	fence.i
8000010c:	12000073          	sfence.vma
80000110:	05000313          	li	t1,80
80000114:	0062a023          	sw	t1,0(t0)
80000118:	04100313          	li	t1,65
8000011c:	0062a023          	sw	t1,0(t0)
80000120:	00000517          	auipc	a0,0x0
80000124:	0d050513          	addi	a0,a0,208 # 800001f0 <user_code>
80000128:	803005b7          	lui	a1,0x80300
8000012c:	00052e03          	lw	t3,0(a0)
80000130:	01c5a023          	sw	t3,0(a1) # 80300000 <MAGIC_PRINT+0xf0300000>
80000134:	00452e03          	lw	t3,4(a0)
80000138:	01c5a223          	sw	t3,4(a1)
8000013c:	00852e03          	lw	t3,8(a0)
80000140:	01c5a423          	sw	t3,8(a1)
80000144:	00c52e03          	lw	t3,12(a0)
80000148:	01c5a623          	sw	t3,12(a1)
8000014c:	01052e03          	lw	t3,16(a0)
80000150:	01c5a823          	sw	t3,16(a1)
80000154:	01452e03          	lw	t3,20(a0)
80000158:	01c5aa23          	sw	t3,20(a1)
8000015c:	01852e03          	lw	t3,24(a0)
80000160:	01c5ac23          	sw	t3,24(a1)
80000164:	01c52e03          	lw	t3,28(a0)
80000168:	01c5ae23          	sw	t3,28(a1)
8000016c:	02052e03          	lw	t3,32(a0)
80000170:	03c5a023          	sw	t3,32(a1)
80000174:	02452e03          	lw	t3,36(a0)
80000178:	03c5a223          	sw	t3,36(a1)
8000017c:	02852e03          	lw	t3,40(a0)
80000180:	03c5a423          	sw	t3,40(a1)
80000184:	02c52e03          	lw	t3,44(a0)
80000188:	03c5a623          	sw	t3,44(a1)
8000018c:	04200313          	li	t1,66
80000190:	0062a023          	sw	t1,0(t0)
80000194:	07300313          	li	t1,115
80000198:	0062a023          	sw	t1,0(t0)
8000019c:	12000073          	sfence.vma
800001a0:	80080e37          	lui	t3,0x80080
800001a4:	101e6e13          	ori	t3,t3,257
800001a8:	180e1073          	csrw	satp,t3
800001ac:	12000073          	sfence.vma
800001b0:	07700313          	li	t1,119
800001b4:	0062a023          	sw	t1,0(t0)
800001b8:	06600313          	li	t1,102
800001bc:	0062a023          	sw	t1,0(t0)
800001c0:	0000100f          	fence.i
800001c4:	12000073          	sfence.vma
800001c8:	00800e37          	lui	t3,0x800
800001cc:	141e1073          	csrw	sepc,t3
800001d0:	10002e73          	csrr	t3,sstatus
800001d4:	eff00e93          	li	t4,-257
800001d8:	01de7e33          	and	t3,t3,t4
800001dc:	100e1073          	csrw	sstatus,t3
800001e0:	05500313          	li	t1,85
800001e4:	0062a023          	sw	t1,0(t0)
800001e8:	10200073          	sret
800001ec:	00000013          	nop

800001f0 <user_code>:
800001f0:	05900293          	li	t0,89
800001f4:	90000337          	lui	t1,0x90000
800001f8:	00532023          	sw	t0,0(t1) # 90000000 <MAGIC_PRINT+0x0>
800001fc:	00a00293          	li	t0,10
80000200:	00532023          	sw	t0,0(t1)

80000204 <user_done>:
80000204:	0000006f          	j	80000204 <user_done>

80000208 <s_trap_handler>:
80000208:	900002b7          	lui	t0,0x90000
8000020c:	05400313          	li	t1,84
80000210:	0062a023          	sw	t1,0(t0) # 90000000 <MAGIC_PRINT+0x0>
80000214:	142023f3          	csrr	t2,scause
80000218:	00f3fe13          	andi	t3,t2,15
8000021c:	00a00e93          	li	t4,10
80000220:	01de4663          	blt	t3,t4,8000022c <s_trap_handler+0x24>
80000224:	037e0e13          	addi	t3,t3,55 # 800037 <PTE_USER+0x7fff58>
80000228:	0080006f          	j	80000230 <s_trap_handler+0x28>
8000022c:	030e0e13          	addi	t3,t3,48
80000230:	01c2a023          	sw	t3,0(t0)
80000234:	03d00313          	li	t1,61
80000238:	0062a023          	sw	t1,0(t0)
8000023c:	141023f3          	csrr	t2,sepc
80000240:	0103d393          	srli	t2,t2,0x10
80000244:	00c3de13          	srli	t3,t2,0xc
80000248:	00fe7e13          	andi	t3,t3,15
8000024c:	00a00e93          	li	t4,10
80000250:	01de4663          	blt	t3,t4,8000025c <s_trap_handler+0x54>
80000254:	037e0e13          	addi	t3,t3,55
80000258:	0080006f          	j	80000260 <s_trap_handler+0x58>
8000025c:	030e0e13          	addi	t3,t3,48
80000260:	01c2a023          	sw	t3,0(t0)
80000264:	0083de13          	srli	t3,t2,0x8
80000268:	00fe7e13          	andi	t3,t3,15
8000026c:	00a00e93          	li	t4,10
80000270:	01de4663          	blt	t3,t4,8000027c <s_trap_handler+0x74>
80000274:	037e0e13          	addi	t3,t3,55
80000278:	0080006f          	j	80000280 <s_trap_handler+0x78>
8000027c:	030e0e13          	addi	t3,t3,48
80000280:	01c2a023          	sw	t3,0(t0)
80000284:	0043de13          	srli	t3,t2,0x4
80000288:	00fe7e13          	andi	t3,t3,15
8000028c:	00a00e93          	li	t4,10
80000290:	01de4663          	blt	t3,t4,8000029c <s_trap_handler+0x94>
80000294:	037e0e13          	addi	t3,t3,55
80000298:	0080006f          	j	800002a0 <s_trap_handler+0x98>
8000029c:	030e0e13          	addi	t3,t3,48
800002a0:	01c2a023          	sw	t3,0(t0)
800002a4:	00f3fe13          	andi	t3,t2,15
800002a8:	00a00e93          	li	t4,10
800002ac:	01de4663          	blt	t3,t4,800002b8 <s_trap_handler+0xb0>
800002b0:	037e0e13          	addi	t3,t3,55
800002b4:	0080006f          	j	800002bc <s_trap_handler+0xb4>
800002b8:	030e0e13          	addi	t3,t3,48
800002bc:	01c2a023          	sw	t3,0(t0)
800002c0:	00a00313          	li	t1,10
800002c4:	0062a023          	sw	t1,0(t0)

800002c8 <trap_loop>:
800002c8:	0000006f          	j	800002c8 <trap_loop>
	...
